; Function Attrs: nounwind uwtable
define hidden range(i32 0, 2) i32 @CBB_add_bytes(ptr noundef captures(none) %0, ptr noundef readonly captures(none) %1, i64 noundef %2) local_unnamed_addr #8 {
  %4 = tail call i32 @CBB_flush(ptr noundef %0)
  %.not = icmp eq i32 %4, 0
  br i1 %.not, label %cbb_buffer_add.exit.thread, label %5

5:                                                ; preds = %3
  %6 = load ptr, ptr %0, align 8, !tbaa !16
  %7 = icmp eq ptr %6, null
  br i1 %7, label %cbb_buffer_add.exit.thread, label %8

8:                                                ; preds = %5
  %9 = getelementptr inbounds nuw i8, ptr %6, i64 8
  %10 = load i64, ptr %9, align 8, !tbaa !13
  %11 = add i64 %10, %2
  %12 = icmp ult i64 %11, %10
  br i1 %12, label %cbb_buffer_add.exit.thread, label %13

13:                                               ; preds = %8
  %14 = getelementptr inbounds nuw i8, ptr %6, i64 16
  %15 = load i64, ptr %14, align 8, !tbaa !14
  %16 = icmp ugt i64 %11, %15
  br i1 %16, label %17, label %._crit_edge

._crit_edge:                                      ; preds = %13
  %.pre = load ptr, ptr %6, align 8, !tbaa !6
  br label %27

17:                                               ; preds = %13
  %18 = getelementptr inbounds nuw i8, ptr %6, i64 24
  %19 = load i8, ptr %18, align 8, !tbaa !15
  %.not.i.i = icmp eq i8 %19, 0
  br i1 %.not.i.i, label %cbb_buffer_add.exit.thread, label %20

20:                                               ; preds = %17
  %21 = shl i64 %15, 1
  %22 = icmp slt i64 %15, 0
  %23 = tail call i64 @llvm.umax.i64(i64 %21, i64 %11)
  %.026.i.i = select i1 %22, i64 %11, i64 %23
  %24 = load ptr, ptr %6, align 8, !tbaa !6
  %25 = tail call ptr @realloc(ptr noundef %24, i64 noundef %.026.i.i) #16
  %26 = icmp eq ptr %25, null
  br i1 %26, label %cbb_buffer_add.exit.thread, label %.critedge.i.i

.critedge.i.i:                                    ; preds = %20
  store ptr %25, ptr %6, align 8, !tbaa !6
  store i64 %.026.i.i, ptr %14, align 8, !tbaa !14
  %.pre.pre.i = load i64, ptr %9, align 8, !tbaa !13
  %.pre10 = add i64 %.pre.pre.i, %2
  br label %27

27:                                               ; preds = %._crit_edge, %.critedge.i.i
  %.pre-phi = phi i64 [ %11, %._crit_edge ], [ %.pre10, %.critedge.i.i ]
  %28 = phi ptr [ %.pre, %._crit_edge ], [ %25, %.critedge.i.i ]
  %.pre.i = phi i64 [ %10, %._crit_edge ], [ %.pre.pre.i, %.critedge.i.i ]
  %29 = getelementptr inbounds nuw i8, ptr %28, i64 %.pre.i
  store i64 %.pre-phi, ptr %9, align 8, !tbaa !13
  tail call void @llvm.memcpy.p0.p0.i64(ptr align 1 %29, ptr align 1 %1, i64 %2, i1 false)
  br label %cbb_buffer_add.exit.thread

cbb_buffer_add.exit.thread:                       ; preds = %17, %20, %8, %5, %3, %27
  %.0 = phi i32 [ 1, %27 ], [ 0, %3 ], [ 0, %5 ], [ 0, %8 ], [ 0, %20 ], [ 0, %17 ]
  ret i32 %.0
}